Certificate:
    Data:
        Version: 3 (0x2)
        Serial Number: 2 (0x2)
    Signature Algorithm: sha256WithRSAEncryption
        Issuer: CN=ca.localdomain, C=SH, ST=HK, L=Jiangwan, O=VEPC, OU=Wnet
        Validity
            Not Before: Mar 21 12:31:45 2020 GMT
            Not After : Mar 19 12:31:45 2030 GMT
        Subject: C=SH, ST=HK, O=VEPC, OU=Wnet, CN=hss.localdomain
        Subject Public Key Info:
            Public Key Algorithm: rsaEncryption
                Public-Key: (1024 bit)
                Modulus:
                    00:c2:49:2e:da:c4:9d:b2:ac:c7:87:6e:52:e7:32:
                    72:01:10:dd:b5:2d:4e:f9:35:fb:ca:b8:31:bb:9d:
                    56:6e:70:3d:ff:ff:48:90:2d:ff:eb:4c:dc:a1:39:
                    56:27:1a:9c:f9:24:37:f7:23:05:e5:96:0a:4a:52:
                    15:1d:5f:91:7b:9c:8f:90:f9:9e:17:73:06:23:9b:
                    09:bb:36:97:b7:c5:6e:40:93:73:47:bd:ca:91:2d:
                    45:2f:36:89:d0:87:1b:40:84:ed:21:bf:b2:7b:34:
                    4b:61:6c:4e:77:08:0a:47:ea:80:07:ff:a4:98:c9:
                    dd:44:04:a7:cf:b7:44:46:17
                Exponent: 65537 (0x10001)
        X509v3 extensions:
            X509v3 Basic Constraints: 
                CA:FALSE
            Netscape Comment: 
                OpenSSL Generated Certificate
            X509v3 Subject Key Identifier: 
                2E:16:75:72:BE:6A:D3:32:1A:35:0B:A6:39:46:45:4F:EF:1C:15:C1
            X509v3 Authority Key Identifier: 
                keyid:B8:82:0A:0D:ED:EB:8E:08:DB:1C:49:B0:12:BD:70:59:63:0E:3A:45

    Signature Algorithm: sha256WithRSAEncryption
         68:d7:64:f0:29:10:2b:0b:fe:85:92:ef:93:77:49:f5:05:08:
         39:43:54:80:04:fd:76:1b:0e:d4:57:b9:b7:36:75:eb:23:d9:
         be:8e:12:b5:13:d3:ff:94:08:b0:25:9b:31:5b:11:29:31:52:
         0c:b9:f1:a8:15:ca:04:5e:30:a5:ce:3b:08:2b:e2:cb:43:9f:
         38:4c:b0:f2:c0:ae:d8:3e:7d:d8:f2:7b:f0:fc:aa:a5:f4:bf:
         f3:13:f0:67:e9:79:7f:d0:55:e1:6f:26:40:13:e8:0c:0d:eb:
         03:59:77:3d:00:34:9e:76:be:a8:1b:69:e4:ca:91:0c:5b:04:
         d2:cc
-----BEGIN CERTIFICATE-----
MIICpzCCAhCgAwIBAgIBAjANBgkqhkiG9w0BAQsFADBkMRcwFQYDVQQDDA5jYS5s
b2NhbGRvbWFpbjELMAkGA1UEBhMCU0gxCzAJBgNVBAgMAkhLMREwDwYDVQQHDAhK
aWFuZ3dhbjENMAsGA1UECgwEVkVQQzENMAsGA1UECwwEV25ldDAeFw0yMDAzMjEx
MjMxNDVaFw0zMDAzMTkxMjMxNDVaMFIxCzAJBgNVBAYTAlNIMQswCQYDVQQIDAJI
SzENMAsGA1UECgwEVkVQQzENMAsGA1UECwwEV25ldDEYMBYGA1UEAwwPaHNzLmxv
Y2FsZG9tYWluMIGfMA0GCSqGSIb3DQEBAQUAA4GNADCBiQKBgQDCSS7axJ2yrMeH
blLnMnIBEN21LU75NfvKuDG7nVZucD3//0iQLf/rTNyhOVYnGpz5JDf3IwXllgpK
UhUdX5F7nI+Q+Z4XcwYjmwm7Npe3xW5Ak3NHvcqRLUUvNonQhxtAhO0hv7J7NEth
bE53CApH6oAH/6SYyd1EBKfPt0RGFwIDAQABo3sweTAJBgNVHRMEAjAAMCwGCWCG
SAGG+EIBDQQfFh1PcGVuU1NMIEdlbmVyYXRlZCBDZXJ0aWZpY2F0ZTAdBgNVHQ4E
FgQULhZ1cr5q0zIaNQumOUZFT+8cFcEwHwYDVR0jBBgwFoAUuIIKDe3rjgjbHEmw
Er1wWWMOOkUwDQYJKoZIhvcNAQELBQADgYEAaNdk8CkQKwv+hZLvk3dJ9QUIOUNU
gAT9dhsO1Fe5tzZ16yPZvo4StRPT/5QIsCWbMVsRKTFSDLnxqBXKBF4wpc47CCvi
y0OfOEyw8sCu2D592PJ78PyqpfS/8xPwZ+l5f9BV4W8mQBPoDA3rA1l3PQA0nna+
qBtp5MqRDFsE0sw=
-----END CERTIFICATE-----
