Certificate:
    Data:
        Version: 3 (0x2)
        Serial Number: 1 (0x1)
    Signature Algorithm: sha256WithRSAEncryption
        Issuer: CN=ca.localdomain, C=SH, ST=HK, L=Jiangwan, O=VEPC, OU=Wnet
        Validity
            Not Before: Mar 21 12:31:45 2020 GMT
            Not After : Mar 19 12:31:45 2030 GMT
        Subject: C=SH, ST=HK, O=VEPC, OU=Wnet, CN=mme.localdomain
        Subject Public Key Info:
            Public Key Algorithm: rsaEncryption
                Public-Key: (1024 bit)
                Modulus:
                    00:b3:eb:1c:2e:67:3c:95:91:7c:84:47:7e:c9:4f:
                    72:6e:6f:d1:1e:c7:2f:b0:5e:87:88:f2:f2:67:52:
                    f8:c6:6e:d2:7e:16:9c:74:08:07:a4:94:d5:da:17:
                    32:e9:16:42:91:e5:91:aa:48:e1:1d:20:c9:71:9d:
                    66:66:7b:09:4a:dc:df:43:4d:98:8e:2e:3c:ec:88:
                    d3:03:16:a0:82:9b:8a:d8:fa:c0:38:99:18:7f:e2:
                    b3:2b:e2:0c:62:cd:9d:b4:f8:04:fb:a1:f1:c5:15:
                    c4:66:b6:c1:48:b9:7d:c4:3b:6d:f3:1a:16:20:76:
                    f3:42:b7:bb:ac:09:7b:b8:bf
                Exponent: 65537 (0x10001)
        X509v3 extensions:
            X509v3 Basic Constraints: 
                CA:FALSE
            Netscape Comment: 
                OpenSSL Generated Certificate
            X509v3 Subject Key Identifier: 
                A3:2C:86:C5:88:FE:84:38:BB:3C:49:79:4F:5D:C4:24:07:61:3C:AD
            X509v3 Authority Key Identifier: 
                keyid:B8:82:0A:0D:ED:EB:8E:08:DB:1C:49:B0:12:BD:70:59:63:0E:3A:45

    Signature Algorithm: sha256WithRSAEncryption
         29:2d:d5:bd:bd:dd:65:1c:de:62:b6:64:c3:af:13:9a:43:47:
         d0:cf:13:6b:46:16:02:a8:dd:88:3a:03:3e:c7:d3:9b:0b:1f:
         45:43:b4:17:5b:33:1b:24:64:21:b9:a4:69:1e:f6:f2:41:25:
         1a:ef:b0:d8:07:7e:27:87:60:e5:78:46:a0:74:e3:c5:9f:f5:
         4f:18:55:18:24:17:71:6b:2f:22:99:0c:21:68:e9:96:48:f9:
         2c:c7:68:c9:29:d2:54:b6:78:13:a8:13:cb:ac:76:3a:c6:a8:
         75:73:72:51:c1:06:08:a4:68:0e:1a:1b:d6:c1:4e:f7:a7:aa:
         83:87
-----BEGIN CERTIFICATE-----
MIICpzCCAhCgAwIBAgIBATANBgkqhkiG9w0BAQsFADBkMRcwFQYDVQQDDA5jYS5s
b2NhbGRvbWFpbjELMAkGA1UEBhMCU0gxCzAJBgNVBAgMAkhLMREwDwYDVQQHDAhK
aWFuZ3dhbjENMAsGA1UECgwEVkVQQzENMAsGA1UECwwEV25ldDAeFw0yMDAzMjEx
MjMxNDVaFw0zMDAzMTkxMjMxNDVaMFIxCzAJBgNVBAYTAlNIMQswCQYDVQQIDAJI
SzENMAsGA1UECgwEVkVQQzENMAsGA1UECwwEV25ldDEYMBYGA1UEAwwPbW1lLmxv
Y2FsZG9tYWluMIGfMA0GCSqGSIb3DQEBAQUAA4GNADCBiQKBgQCz6xwuZzyVkXyE
R37JT3Jub9Eexy+wXoeI8vJnUvjGbtJ+Fpx0CAeklNXaFzLpFkKR5ZGqSOEdIMlx
nWZmewlK3N9DTZiOLjzsiNMDFqCCm4rY+sA4mRh/4rMr4gxizZ20+AT7ofHFFcRm
tsFIuX3EO23zGhYgdvNCt7usCXu4vwIDAQABo3sweTAJBgNVHRMEAjAAMCwGCWCG
SAGG+EIBDQQfFh1PcGVuU1NMIEdlbmVyYXRlZCBDZXJ0aWZpY2F0ZTAdBgNVHQ4E
FgQUoyyGxYj+hDi7PEl5T13EJAdhPK0wHwYDVR0jBBgwFoAUuIIKDe3rjgjbHEmw
Er1wWWMOOkUwDQYJKoZIhvcNAQELBQADgYEAKS3Vvb3dZRzeYrZkw68TmkNH0M8T
a0YWAqjdiDoDPsfTmwsfRUO0F1szGyRkIbmkaR728kElGu+w2Ad+J4dg5XhGoHTj
xZ/1TxhVGCQXcWsvIpkMIWjplkj5LMdoySnSVLZ4E6gTy6x2OsaodXNyUcEGCKRo
Dhob1sFO96eqg4c=
-----END CERTIFICATE-----
