Certificate:
    Data:
        Version: 3 (0x2)
        Serial Number: 4 (0x4)
    Signature Algorithm: sha256WithRSAEncryption
        Issuer: CN=ca.localdomain, C=SH, ST=HK, L=Jiangwan, O=VEPC, OU=Wnet
        Validity
            Not Before: Mar 21 12:31:45 2020 GMT
            Not After : Mar 19 12:31:45 2030 GMT
        Subject: C=SH, ST=HK, O=VEPC, OU=Wnet, CN=pcrf.localdomain
        Subject Public Key Info:
            Public Key Algorithm: rsaEncryption
                Public-Key: (1024 bit)
                Modulus:
                    00:b0:64:cf:6b:dd:e0:69:84:ef:7f:d1:15:4e:76:
                    58:b0:24:54:89:33:6b:24:f3:b2:6a:42:e2:c9:3c:
                    e7:60:c7:c9:33:c6:13:8f:11:5d:35:6d:5c:e0:62:
                    ef:a8:a2:50:b3:83:f5:53:c4:57:dd:f3:df:5c:c9:
                    74:6c:45:26:09:23:75:ff:66:64:5e:6a:61:76:3b:
                    7e:63:65:2c:17:ec:f4:ca:44:96:56:a9:7d:1b:03:
                    36:51:b2:4b:26:5e:5d:d8:b0:b5:95:71:76:59:1e:
                    24:90:2a:1f:8f:a1:ea:f6:87:bc:6d:c8:9d:ad:17:
                    7e:a7:e3:c2:20:a5:39:5f:f3
                Exponent: 65537 (0x10001)
        X509v3 extensions:
            X509v3 Basic Constraints: 
                CA:FALSE
            Netscape Comment: 
                OpenSSL Generated Certificate
            X509v3 Subject Key Identifier: 
                7E:65:FF:1C:17:52:58:DC:87:C7:AC:CE:D0:1E:ED:6D:1F:EA:1C:87
            X509v3 Authority Key Identifier: 
                keyid:B8:82:0A:0D:ED:EB:8E:08:DB:1C:49:B0:12:BD:70:59:63:0E:3A:45

    Signature Algorithm: sha256WithRSAEncryption
         6a:54:ca:6b:df:97:11:ec:46:35:90:6a:85:62:17:c1:c5:4d:
         f1:d1:e8:d9:4f:b0:64:fb:af:30:58:4f:46:e9:c2:12:ec:f7:
         39:82:63:95:ad:5b:e1:e8:13:6e:d0:42:6e:c6:0b:cd:1b:3f:
         9e:98:a9:eb:06:c4:37:77:35:18:f7:c4:dd:c5:b3:f9:75:ff:
         57:09:20:24:ca:e1:ae:29:fe:61:b2:b8:79:12:ac:20:57:fa:
         02:cd:ed:60:c7:43:2d:48:47:12:12:7b:f8:43:3d:d5:3d:91:
         4a:bf:0b:ad:16:5c:19:70:d2:46:d2:7c:59:d6:1f:79:8b:3b:
         a1:e9
-----BEGIN CERTIFICATE-----
MIICqDCCAhGgAwIBAgIBBDANBgkqhkiG9w0BAQsFADBkMRcwFQYDVQQDDA5jYS5s
b2NhbGRvbWFpbjELMAkGA1UEBhMCU0gxCzAJBgNVBAgMAkhLMREwDwYDVQQHDAhK
aWFuZ3dhbjENMAsGA1UECgwEVkVQQzENMAsGA1UECwwEV25ldDAeFw0yMDAzMjEx
MjMxNDVaFw0zMDAzMTkxMjMxNDVaMFMxCzAJBgNVBAYTAlNIMQswCQYDVQQIDAJI
SzENMAsGA1UECgwEVkVQQzENMAsGA1UECwwEV25ldDEZMBcGA1UEAwwQcGNyZi5s
b2NhbGRvbWFpbjCBnzANBgkqhkiG9w0BAQEFAAOBjQAwgYkCgYEAsGTPa93gaYTv
f9EVTnZYsCRUiTNrJPOyakLiyTznYMfJM8YTjxFdNW1c4GLvqKJQs4P1U8RX3fPf
XMl0bEUmCSN1/2ZkXmphdjt+Y2UsF+z0ykSWVql9GwM2UbJLJl5d2LC1lXF2WR4k
kCofj6Hq9oe8bcidrRd+p+PCIKU5X/MCAwEAAaN7MHkwCQYDVR0TBAIwADAsBglg
hkgBhvhCAQ0EHxYdT3BlblNTTCBHZW5lcmF0ZWQgQ2VydGlmaWNhdGUwHQYDVR0O
BBYEFH5l/xwXUljch8esztAe7W0f6hyHMB8GA1UdIwQYMBaAFLiCCg3t644I2xxJ
sBK9cFljDjpFMA0GCSqGSIb3DQEBCwUAA4GBAGpUymvflxHsRjWQaoViF8HFTfHR
6NlPsGT7rzBYT0bpwhLs9zmCY5WtW+HoE27QQm7GC80bP56YqesGxDd3NRj3xN3F
s/l1/1cJICTK4a4p/mGyuHkSrCBX+gLN7WDHQy1IRxISe/hDPdU9kUq/C60WXBlw
0kbSfFnWH3mLO6Hp
-----END CERTIFICATE-----
