Certificate:
    Data:
        Version: 3 (0x2)
        Serial Number: 3 (0x3)
    Signature Algorithm: sha256WithRSAEncryption
        Issuer: CN=ca.localdomain, C=SH, ST=HK, L=Jiangwan, O=VEPC, OU=Wnet
        Validity
            Not Before: Mar 21 12:31:45 2020 GMT
            Not After : Mar 19 12:31:45 2030 GMT
        Subject: C=SH, ST=HK, O=VEPC, OU=Wnet, CN=pgw.localdomain
        Subject Public Key Info:
            Public Key Algorithm: rsaEncryption
                Public-Key: (1024 bit)
                Modulus:
                    00:e3:09:bb:76:b7:5b:b3:66:1b:64:4f:f1:af:0d:
                    8a:db:27:0c:94:b1:67:68:1c:55:e0:c9:64:4a:77:
                    1f:f0:06:c8:11:e0:e6:dc:b1:c8:36:b0:35:84:f0:
                    b8:78:37:cf:1a:c5:29:85:a0:46:61:1a:35:5a:8b:
                    79:13:9d:d8:56:fa:b7:29:c8:fb:5c:7e:2c:b8:42:
                    2f:70:b0:f5:70:9c:b1:17:58:e1:b9:8c:29:17:ad:
                    22:ae:b6:19:3e:d4:e0:a9:9b:0b:a1:65:60:ab:55:
                    03:9c:25:24:f1:21:59:27:63:61:73:2d:fa:ea:01:
                    ec:33:50:96:5b:b5:2e:4d:7b
                Exponent: 65537 (0x10001)
        X509v3 extensions:
            X509v3 Basic Constraints: 
                CA:FALSE
            Netscape Comment: 
                OpenSSL Generated Certificate
            X509v3 Subject Key Identifier: 
                B6:A2:AC:7A:93:45:2B:C7:5E:88:92:DF:03:8C:00:09:7B:3C:3F:44
            X509v3 Authority Key Identifier: 
                keyid:B8:82:0A:0D:ED:EB:8E:08:DB:1C:49:B0:12:BD:70:59:63:0E:3A:45

    Signature Algorithm: sha256WithRSAEncryption
         25:c0:0c:b0:cf:ec:7e:20:58:31:12:15:ba:01:32:07:35:af:
         33:87:f8:71:4f:7a:b2:84:03:78:96:0f:37:e6:f1:98:b0:ed:
         03:a8:bb:b5:a7:86:96:c1:00:42:a8:86:57:43:70:30:69:55:
         ed:84:d0:2b:e8:2e:c0:65:fc:39:79:5b:14:7e:70:03:fc:e2:
         c6:7e:24:f5:0f:0a:f1:b9:c0:2d:f8:3e:89:4c:8d:79:81:09:
         9c:4c:dd:03:29:18:61:40:cb:84:43:26:d3:1a:12:06:81:76:
         d3:5e:37:44:08:7a:e3:20:20:24:ca:b5:b5:40:87:17:36:31:
         07:0b
-----BEGIN CERTIFICATE-----
MIICpzCCAhCgAwIBAgIBAzANBgkqhkiG9w0BAQsFADBkMRcwFQYDVQQDDA5jYS5s
b2NhbGRvbWFpbjELMAkGA1UEBhMCU0gxCzAJBgNVBAgMAkhLMREwDwYDVQQHDAhK
aWFuZ3dhbjENMAsGA1UECgwEVkVQQzENMAsGA1UECwwEV25ldDAeFw0yMDAzMjEx
MjMxNDVaFw0zMDAzMTkxMjMxNDVaMFIxCzAJBgNVBAYTAlNIMQswCQYDVQQIDAJI
SzENMAsGA1UECgwEVkVQQzENMAsGA1UECwwEV25ldDEYMBYGA1UEAwwPcGd3Lmxv
Y2FsZG9tYWluMIGfMA0GCSqGSIb3DQEBAQUAA4GNADCBiQKBgQDjCbt2t1uzZhtk
T/GvDYrbJwyUsWdoHFXgyWRKdx/wBsgR4Obcscg2sDWE8Lh4N88axSmFoEZhGjVa
i3kTndhW+rcpyPtcfiy4Qi9wsPVwnLEXWOG5jCkXrSKuthk+1OCpmwuhZWCrVQOc
JSTxIVknY2FzLfrqAewzUJZbtS5NewIDAQABo3sweTAJBgNVHRMEAjAAMCwGCWCG
SAGG+EIBDQQfFh1PcGVuU1NMIEdlbmVyYXRlZCBDZXJ0aWZpY2F0ZTAdBgNVHQ4E
FgQUtqKsepNFK8deiJLfA4wACXs8P0QwHwYDVR0jBBgwFoAUuIIKDe3rjgjbHEmw
Er1wWWMOOkUwDQYJKoZIhvcNAQELBQADgYEAJcAMsM/sfiBYMRIVugEyBzWvM4f4
cU96soQDeJYPN+bxmLDtA6i7taeGlsEAQqiGV0NwMGlV7YTQK+guwGX8OXlbFH5w
A/zixn4k9Q8K8bnALfg+iUyNeYEJnEzdAykYYUDLhEMm0xoSBoF20143RAh64yAg
JMq1tUCHFzYxBws=
-----END CERTIFICATE-----
